target datalayout = "e-m:e-p270:32:32-p271:32:32-p272:64:64-i64:64-i128:128-f80:128-n8:16:32:64-S128"
target triple = "x86_64-pc-linux-gnu"

%struct.DdManager = type { %struct.DdNode, ptr, ptr, ptr, ptr, ptr, ptr, ptr, i32, i32, double, double, double, i32, i32, i32, i32, i32, i32, ptr, ptr, %struct.DdSubtable, i32, i32, i32, i32, i32, i32, i32, double, i32, i32, i32, ptr, i64, double, i32, ptr, ptr, ptr, ptr, ptr, ptr, ptr, i32, ptr, ptr, ptr, ptr, ptr, ptr, i32, i32, i32, double, i32, i32, i32, i32, double, double, i32, i32, i32, i32, i32, i32, i32, i32, i32, ptr, ptr, i32, i32, i32, i32, i32, i32, ptr, ptr, ptr, ptr, ptr, ptr, ptr, ptr, i32, i64, i64, i64, i32, i64, i64, double, double, double, double, double, double, i32, ptr, ptr, i64 }
%struct.DdNode = type { i32, i32, ptr, %union.anon, i64 }
%union.anon = type { %struct.DdChildren }
%struct.DdChildren = type { ptr, ptr }
%struct.DdSubtable = type { ptr, i32, i32, i32, i32, i32, i32, i32, i32, i32, i32, i32 }

; Function Attrs: nounwind uwtable
define void @cuddGetBranches(ptr noundef %0, ptr noundef %1, ptr noundef %2) #0 {
  %4 = alloca ptr, align 8
  %5 = alloca ptr, align 8
  %6 = alloca ptr, align 8
  %7 = alloca ptr, align 8
  store ptr %0, ptr %4, align 8
  store ptr %1, ptr %5, align 8
  store ptr %2, ptr %6, align 8
  %8 = load ptr, ptr %4, align 8
  %9 = ptrtoint ptr %8 to i64
  %10 = and i64 %9, -2
  %11 = inttoptr i64 %10 to ptr
  store ptr %11, ptr %7, align 8
  %12 = load ptr, ptr %7, align 8
  %13 = getelementptr inbounds %struct.DdNode, ptr %12, i32 0, i32 3
  %14 = getelementptr inbounds %struct.DdChildren, ptr %13, i32 0, i32 0
  %15 = load ptr, ptr %14, align 8
  %16 = load ptr, ptr %5, align 8
  store ptr %15, ptr %16, align 8
  %17 = load ptr, ptr %7, align 8
  %18 = getelementptr inbounds %struct.DdNode, ptr %17, i32 0, i32 3
  %19 = getelementptr inbounds %struct.DdChildren, ptr %18, i32 0, i32 1
  %20 = load ptr, ptr %19, align 8
  %21 = load ptr, ptr %6, align 8
  store ptr %20, ptr %21, align 8
  %22 = load ptr, ptr %4, align 8
  %23 = ptrtoint ptr %22 to i64
  %24 = and i64 %23, 1
  %25 = trunc i64 %24 to i32
  %26 = icmp ne i32 %25, 0
  br i1 %26, label %27, label %40

27:                                               ; preds = %3
  %28 = load ptr, ptr %5, align 8
  %29 = load ptr, ptr %28, align 8
  %30 = ptrtoint ptr %29 to i64
  %31 = xor i64 %30, 1
  %32 = inttoptr i64 %31 to ptr
  %33 = load ptr, ptr %5, align 8
  store ptr %32, ptr %33, align 8
  %34 = load ptr, ptr %6, align 8
  %35 = load ptr, ptr %34, align 8
  %36 = ptrtoint ptr %35 to i64
  %37 = xor i64 %36, 1
  %38 = inttoptr i64 %37 to ptr
  %39 = load ptr, ptr %6, align 8
  store ptr %38, ptr %39, align 8
  br label %40

40:                                               ; preds = %27, %3
  ret void
}

; Function Attrs: nounwind uwtable
define i32 @cuddCheckCube(ptr noundef %0, ptr noundef %1) #0 {
  %3 = alloca i32, align 4
  %4 = alloca ptr, align 8
  %5 = alloca ptr, align 8
  %6 = alloca ptr, align 8
  %7 = alloca ptr, align 8
  %8 = alloca ptr, align 8
  %9 = alloca ptr, align 8
  store ptr %0, ptr %4, align 8
  store ptr %1, ptr %5, align 8
  %10 = load ptr, ptr %4, align 8
  %11 = getelementptr inbounds %struct.DdManager, ptr %10, i32 0, i32 1
  %12 = load ptr, ptr %11, align 8
  store ptr %12, ptr %8, align 8
  %13 = load ptr, ptr %5, align 8
  %14 = load ptr, ptr %8, align 8
  %15 = icmp eq ptr %13, %14
  br i1 %15, label %16, label %17

16:                                               ; preds = %2
  store i32 1, ptr %3, align 4
  br label %48

17:                                               ; preds = %2
  %18 = load ptr, ptr %5, align 8
  %19 = ptrtoint ptr %18 to i64
  %20 = and i64 %19, -2
  %21 = inttoptr i64 %20 to ptr
  %22 = getelementptr inbounds %struct.DdNode, ptr %21, i32 0, i32 0
  %23 = load i32, ptr %22, align 8
  %24 = icmp eq i32 %23, 2147483647
  br i1 %24, label %25, label %26

25:                                               ; preds = %17
  store i32 0, ptr %3, align 4
  br label %48

26:                                               ; preds = %17
  %27 = load ptr, ptr %8, align 8
  %28 = ptrtoint ptr %27 to i64
  %29 = xor i64 %28, 1
  %30 = inttoptr i64 %29 to ptr
  store ptr %30, ptr %9, align 8
  %31 = load ptr, ptr %5, align 8
  call void @cuddGetBranches(ptr noundef %31, ptr noundef %6, ptr noundef %7)
  %32 = load ptr, ptr %7, align 8
  %33 = load ptr, ptr %9, align 8
  %34 = icmp eq ptr %32, %33
  br i1 %34, label %35, label %39

35:                                               ; preds = %26
  %36 = load ptr, ptr %4, align 8
  %37 = load ptr, ptr %6, align 8
  %38 = call i32 @cuddCheckCube(ptr noundef %36, ptr noundef %37)
  store i32 %38, ptr %3, align 4
  br label %48

39:                                               ; preds = %26
  %40 = load ptr, ptr %6, align 8
  %41 = load ptr, ptr %9, align 8
  %42 = icmp eq ptr %40, %41
  br i1 %42, label %43, label %47

43:                                               ; preds = %39
  %44 = load ptr, ptr %4, align 8
  %45 = load ptr, ptr %7, align 8
  %46 = call i32 @cuddCheckCube(ptr noundef %44, ptr noundef %45)
  store i32 %46, ptr %3, align 4
  br label %48

47:                                               ; preds = %39
  store i32 0, ptr %3, align 4
  br label %48

48:                                               ; preds = %47, %43, %35, %25, %16
  %49 = load i32, ptr %3, align 4
  ret i32 %49
}