; Function Attrs: nofree norecurse nosync nounwind memory(read, inaccessiblemem: none) uwtable
define range(i32 0, 2) i32 @cuddCheckCube(ptr noundef readonly captures(none) %0, ptr noundef %1) local_unnamed_addr #2 {
  %3 = getelementptr inbounds nuw i8, ptr %0, i64 40
  %4 = load ptr, ptr %3, align 8
  %5 = icmp eq ptr %1, %4
  br i1 %5, label %._crit_edge, label %.lr.ph

.lr.ph:                                           ; preds = %2
  %6 = ptrtoint ptr %4 to i64
  %7 = xor i64 %6, 1
  %8 = inttoptr i64 %7 to ptr
  br label %9

9:                                                ; preds = %.lr.ph, %tailrecurse.backedge
  %.tr2021 = phi ptr [ %1, %.lr.ph ], [ %.tr20.be, %tailrecurse.backedge ]
  %10 = ptrtoint ptr %.tr2021 to i64
  %11 = and i64 %10, -2
  %12 = inttoptr i64 %11 to ptr
  %13 = load i32, ptr %12, align 8
  %14 = icmp eq i32 %13, 2147483647
  br i1 %14, label %._crit_edge, label %cuddGetBranches.exit

cuddGetBranches.exit:                             ; preds = %9
  %15 = getelementptr inbounds nuw i8, ptr %12, i64 16
  %16 = load ptr, ptr %15, align 8
  %17 = getelementptr inbounds nuw i8, ptr %12, i64 24
  %18 = load ptr, ptr %17, align 8
  %19 = and i64 %10, 1
  %.not.i = icmp eq i64 %19, 0
  %20 = ptrtoint ptr %16 to i64
  %21 = xor i64 %20, 1
  %22 = inttoptr i64 %21 to ptr
  %23 = ptrtoint ptr %18 to i64
  %24 = xor i64 %23, 1
  %25 = inttoptr i64 %24 to ptr
  %.019 = select i1 %.not.i, ptr %16, ptr %22
  %.018 = select i1 %.not.i, ptr %18, ptr %25
  %26 = icmp eq ptr %.018, %8
  br i1 %26, label %tailrecurse.backedge, label %28

tailrecurse.backedge:                             ; preds = %cuddGetBranches.exit, %28
  %.tr20.be = phi ptr [ %.019, %cuddGetBranches.exit ], [ %.018, %28 ]
  %27 = icmp eq ptr %.tr20.be, %4
  br i1 %27, label %._crit_edge, label %9

28:                                               ; preds = %cuddGetBranches.exit
  %29 = icmp eq ptr %.019, %8
  br i1 %29, label %tailrecurse.backedge, label %._crit_edge

._crit_edge:                                      ; preds = %tailrecurse.backedge, %9, %28, %2
  %.0 = phi i32 [ 1, %2 ], [ 0, %28 ], [ 0, %9 ], [ 1, %tailrecurse.backedge ]
  ret i32 %.0
}